target datalayout = "e-m:e-p270:32:32-p271:32:32-p272:64:64-i64:64-i128:128-f80:128-n8:16:32:64-S128"
target triple = "x86_64-pc-linux-gnu"

%"class.std::shared_ptr" = type { %"class.std::__shared_ptr" }
%"class.std::__shared_ptr" = type { ptr, %"class.std::__shared_count" }
%"class.std::__shared_count" = type { ptr }
%"class.open_spiel::dou_dizhu::DouDizhuState" = type <{ %"class.open_spiel::State.base", [4 x i8], %"class.std::vector.6", i32, i32, i32, i32, i32, i32, i8, [3 x i8], i32, i32, i32, i32, i32, %"struct.std::array", %"struct.std::array.11", [4 x i8], %"class.std::vector.12", i32, %"struct.std::array.17", %"class.std::vector.18", %"struct.std::array.23", [4 x i8] }>
%"class.open_spiel::State.base" = type <{ ptr, %"class.std::shared_ptr", i32, i32, %"class.std::vector", i32 }>
%"class.std::vector" = type { %"struct.std::_Vector_base" }
%"struct.std::_Vector_base" = type { %"struct.std::_Vector_base<open_spiel::State::PlayerAction, std::allocator<open_spiel::State::PlayerAction>>::_Vector_impl" }
%"struct.std::_Vector_base<open_spiel::State::PlayerAction, std::allocator<open_spiel::State::PlayerAction>>::_Vector_impl" = type { %"struct.std::_Vector_base<open_spiel::State::PlayerAction, std::allocator<open_spiel::State::PlayerAction>>::_Vector_impl_data" }
%"struct.std::_Vector_base<open_spiel::State::PlayerAction, std::allocator<open_spiel::State::PlayerAction>>::_Vector_impl_data" = type { ptr, ptr, ptr }
%"class.std::vector.6" = type { %"struct.std::_Vector_base.7" }
%"struct.std::_Vector_base.7" = type { %"struct.std::_Vector_base<int, std::allocator<int>>::_Vector_impl" }
%"struct.std::_Vector_base<int, std::allocator<int>>::_Vector_impl" = type { %"struct.std::_Vector_base<int, std::allocator<int>>::_Vector_impl_data" }
%"struct.std::_Vector_base<int, std::allocator<int>>::_Vector_impl_data" = type { ptr, ptr, ptr }
%"struct.std::array" = type { [54 x i32] }
%"struct.std::array.11" = type { [15 x i32] }
%"class.std::vector.12" = type { %"struct.std::_Vector_base.13" }
%"struct.std::_Vector_base.13" = type { %"struct.std::_Vector_base<open_spiel::dou_dizhu::Trick, std::allocator<open_spiel::dou_dizhu::Trick>>::_Vector_impl" }
%"struct.std::_Vector_base<open_spiel::dou_dizhu::Trick, std::allocator<open_spiel::dou_dizhu::Trick>>::_Vector_impl" = type { %"struct.std::_Vector_base<open_spiel::dou_dizhu::Trick, std::allocator<open_spiel::dou_dizhu::Trick>>::_Vector_impl_data" }
%"struct.std::_Vector_base<open_spiel::dou_dizhu::Trick, std::allocator<open_spiel::dou_dizhu::Trick>>::_Vector_impl_data" = type { ptr, ptr, ptr }
%"struct.std::array.17" = type { [3 x i32] }
%"class.std::vector.18" = type { %"struct.std::_Vector_base.19" }
%"struct.std::_Vector_base.19" = type { %"struct.std::_Vector_base<double, std::allocator<double>>::_Vector_impl" }
%"struct.std::_Vector_base<double, std::allocator<double>>::_Vector_impl" = type { %"struct.std::_Vector_base<double, std::allocator<double>>::_Vector_impl_data" }
%"struct.std::_Vector_base<double, std::allocator<double>>::_Vector_impl_data" = type { ptr, ptr, ptr }
%"struct.std::array.23" = type { [3 x %"struct.std::array.11"] }

; Function Attrs: mustprogress nounwind uwtable
define noundef i32 @_ZNK10open_spiel9dou_dizhu13DouDizhuState13CurrentPlayerEv(ptr noundef nonnull align 8 dereferenceable(660) %0) unnamed_addr #6 align 2 {
  %2 = alloca i32, align 4
  %3 = alloca ptr, align 8
  store ptr %0, ptr %3, align 8
  %4 = load ptr, ptr %3, align 8
  %5 = getelementptr inbounds nuw %"class.open_spiel::dou_dizhu::DouDizhuState", ptr %4, i32 0, i32 15
  %6 = load i32, ptr %5, align 4
  %7 = icmp eq i32 %6, 0
  br i1 %7, label %8, label %9

8:                                                ; preds = %1
  store i32 -1, ptr %2, align 4
  br label %17

9:                                                ; preds = %1
  %10 = getelementptr inbounds nuw %"class.open_spiel::dou_dizhu::DouDizhuState", ptr %4, i32 0, i32 15
  %11 = load i32, ptr %10, align 4
  %12 = icmp eq i32 %11, 3
  br i1 %12, label %13, label %14

13:                                               ; preds = %9
  store i32 -4, ptr %2, align 4
  br label %17

14:                                               ; preds = %9
  %15 = getelementptr inbounds nuw %"class.open_spiel::dou_dizhu::DouDizhuState", ptr %4, i32 0, i32 11
  %16 = load i32, ptr %15, align 4
  store i32 %16, ptr %2, align 4
  br label %17

17:                                               ; preds = %14, %13, %8
  %18 = load i32, ptr %2, align 4
  ret i32 %18
}