; Function Attrs: mustprogress nofree norecurse nosync nounwind willreturn memory(argmem: read) uwtable
define noundef i32 @_ZNK10open_spiel9dou_dizhu13DouDizhuState13CurrentPlayerEv(ptr noundef nonnull readonly align 8 captures(none) dereferenceable(660) %0) unnamed_addr #9 align 2 {
  %2 = getelementptr inbounds nuw i8, ptr %0, i64 132
  %3 = load i32, ptr %2, align 4
  switch i32 %3, label %5 [
    i32 0, label %8
    i32 3, label %4
  ]

4:                                                ; preds = %1
  br label %8

5:                                                ; preds = %1
  %6 = getelementptr inbounds nuw i8, ptr %0, i64 116
  %7 = load i32, ptr %6, align 4
  br label %8

8:                                                ; preds = %1, %5, %4
  %.0 = phi i32 [ -4, %4 ], [ %7, %5 ], [ -1, %1 ]
  ret i32 %.0
}